; Function Attrs: mustprogress nounwind uwtable
define hidden void @_ZN6Assimp4Ogre10SubMeshXml5ResetEv(ptr noundef nonnull align 8 captures(none) dereferenceable(168) %0) local_unnamed_addr #6 align 2 personality ptr @__gxx_personality_v0 {
  %2 = getelementptr inbounds nuw i8, ptr %0, i64 152
  %3 = load ptr, ptr %2, align 8
  %4 = icmp eq ptr %3, null
  br i1 %4, label %22, label %5

5:                                                ; preds = %1
  %6 = getelementptr inbounds nuw i8, ptr %3, i64 8
  %7 = load ptr, ptr %6, align 8
  %8 = getelementptr inbounds nuw i8, ptr %3, i64 16
  %9 = load ptr, ptr %8, align 8
  %.not4.i.i.i.i.i = icmp eq ptr %7, %9
  br i1 %.not4.i.i.i.i.i, label %_ZSt8_DestroyIP6aiFaceS0_EvT_S2_RSaIT0_E.exit.i.i, label %.lr.ph.i.i.i.i.i

.lr.ph.i.i.i.i.i:                                 ; preds = %5, %_ZSt8_DestroyI6aiFaceEvPT_.exit.i.i.i.i.i
  %.05.i.i.i.i.i = phi ptr [ %14, %_ZSt8_DestroyI6aiFaceEvPT_.exit.i.i.i.i.i ], [ %7, %5 ]
  %10 = getelementptr inbounds nuw i8, ptr %.05.i.i.i.i.i, i64 8
  %11 = load ptr, ptr %10, align 8
  %12 = icmp eq ptr %11, null
  br i1 %12, label %_ZSt8_DestroyI6aiFaceEvPT_.exit.i.i.i.i.i, label %13

13:                                               ; preds = %.lr.ph.i.i.i.i.i
  tail call void @_ZdaPv(ptr noundef nonnull %11) #34
  br label %_ZSt8_DestroyI6aiFaceEvPT_.exit.i.i.i.i.i

_ZSt8_DestroyI6aiFaceEvPT_.exit.i.i.i.i.i:        ; preds = %13, %.lr.ph.i.i.i.i.i
  %14 = getelementptr inbounds nuw i8, ptr %.05.i.i.i.i.i, i64 16
  %.not.i.i.i.i.i = icmp eq ptr %14, %9
  br i1 %.not.i.i.i.i.i, label %_ZSt8_DestroyIP6aiFaceS0_EvT_S2_RSaIT0_E.exitthread-pre-split.i.i, label %.lr.ph.i.i.i.i.i, !llvm.loop !54

_ZSt8_DestroyIP6aiFaceS0_EvT_S2_RSaIT0_E.exitthread-pre-split.i.i: ; preds = %_ZSt8_DestroyI6aiFaceEvPT_.exit.i.i.i.i.i
  %.pr.i.i = load ptr, ptr %6, align 8
  br label %_ZSt8_DestroyIP6aiFaceS0_EvT_S2_RSaIT0_E.exit.i.i

_ZSt8_DestroyIP6aiFaceS0_EvT_S2_RSaIT0_E.exit.i.i: ; preds = %_ZSt8_DestroyIP6aiFaceS0_EvT_S2_RSaIT0_E.exitthread-pre-split.i.i, %5
  %15 = phi ptr [ %.pr.i.i, %_ZSt8_DestroyIP6aiFaceS0_EvT_S2_RSaIT0_E.exitthread-pre-split.i.i ], [ %7, %5 ]
  %.not.i.i.i.i = icmp eq ptr %15, null
  br i1 %.not.i.i.i.i, label %_ZN6Assimp4Ogre12IndexDataXmlD2Ev.exit, label %16

16:                                               ; preds = %_ZSt8_DestroyIP6aiFaceS0_EvT_S2_RSaIT0_E.exit.i.i
  %17 = getelementptr inbounds nuw i8, ptr %3, i64 24
  %18 = load ptr, ptr %17, align 8
  %19 = ptrtoint ptr %18 to i64
  %20 = ptrtoint ptr %15 to i64
  %21 = sub i64 %19, %20
  tail call void @_ZdlPvm(ptr noundef nonnull %15, i64 noundef %21) #34
  br label %_ZN6Assimp4Ogre12IndexDataXmlD2Ev.exit

_ZN6Assimp4Ogre12IndexDataXmlD2Ev.exit:           ; preds = %_ZSt8_DestroyIP6aiFaceS0_EvT_S2_RSaIT0_E.exit.i.i, %16
  tail call void @_ZdlPvm(ptr noundef nonnull %3, i64 noundef 32) #34
  br label %22

22:                                               ; preds = %_ZN6Assimp4Ogre12IndexDataXmlD2Ev.exit, %1
  store ptr null, ptr %2, align 8
  %23 = getelementptr inbounds nuw i8, ptr %0, i64 160
  %24 = load ptr, ptr %23, align 8
  %25 = icmp eq ptr %24, null
  br i1 %25, label %27, label %26

26:                                               ; preds = %22
  tail call void @_ZN6Assimp4Ogre13VertexDataXmlD2Ev(ptr noundef nonnull align 8 dereferenceable(224) %24) #31
  tail call void @_ZdlPvm(ptr noundef nonnull %24, i64 noundef 224) #34
  br label %27

27:                                               ; preds = %26, %22
  store ptr null, ptr %23, align 8
  ret void
}